target datalayout = "e-m:e-p270:32:32-p271:32:32-p272:64:64-i64:64-i128:128-f80:128-n8:16:32:64-S128"
target triple = "x86_64-pc-linux-gnu"

%struct._cms_io_handler = type { ptr, ptr, i32, i32, [256 x i8], ptr, ptr, ptr, ptr, ptr }
%struct.FILEMEM = type { ptr, i32, i32, i32 }

@.str = private unnamed_addr constant [40 x i8] c"Couldn't read profile from NULL pointer\00", align 1
@.str.1 = private unnamed_addr constant [40 x i8] c"Couldn't allocate %ld bytes for profile\00", align 1
@.str.2 = private unnamed_addr constant [25 x i8] c"Unknown access mode '%c'\00", align 1

; Function Attrs: nounwind uwtable
define hidden ptr @cmsOpenIOhandlerFromMem(ptr noundef %0, ptr noundef %1, i32 noundef %2, ptr noundef %3) #0 {
  %5 = alloca ptr, align 8
  %6 = alloca ptr, align 8
  %7 = alloca ptr, align 8
  %8 = alloca i32, align 4
  %9 = alloca ptr, align 8
  %10 = alloca ptr, align 8
  %11 = alloca ptr, align 8
  store ptr %0, ptr %6, align 8
  store ptr %1, ptr %7, align 8
  store i32 %2, ptr %8, align 4
  store ptr %3, ptr %9, align 8
  store ptr null, ptr %10, align 8
  store ptr null, ptr %11, align 8
  %12 = load ptr, ptr %6, align 8
  %13 = call ptr @_cmsMallocZero(ptr noundef %12, i32 noundef 320)
  store ptr %13, ptr %10, align 8
  %14 = load ptr, ptr %10, align 8
  %15 = icmp eq ptr %14, null
  br i1 %15, label %16, label %17

16:                                               ; preds = %4
  store ptr null, ptr %5, align 8
  br label %127

17:                                               ; preds = %4
  %18 = load ptr, ptr %9, align 8
  %19 = load i8, ptr %18, align 1
  %20 = sext i8 %19 to i32
  switch i32 %20, label %86 [
    i32 114, label %21
    i32 119, label %67
  ]

21:                                               ; preds = %17
  %22 = load ptr, ptr %6, align 8
  %23 = call ptr @_cmsMallocZero(ptr noundef %22, i32 noundef 24)
  store ptr %23, ptr %11, align 8
  %24 = load ptr, ptr %11, align 8
  %25 = icmp eq ptr %24, null
  br i1 %25, label %26, label %27

26:                                               ; preds = %21
  br label %114

27:                                               ; preds = %21
  %28 = load ptr, ptr %7, align 8
  %29 = icmp eq ptr %28, null
  br i1 %29, label %30, label %32

30:                                               ; preds = %27
  %31 = load ptr, ptr %6, align 8
  call void (ptr, i32, ptr, ...) @cmsSignalError(ptr noundef %31, i32 noundef 5, ptr noundef @.str)
  br label %114

32:                                               ; preds = %27
  %33 = load ptr, ptr %6, align 8
  %34 = load i32, ptr %8, align 4
  %35 = call ptr @_cmsMalloc(ptr noundef %33, i32 noundef %34)
  %36 = load ptr, ptr %11, align 8
  %37 = getelementptr inbounds %struct.FILEMEM, ptr %36, i32 0, i32 0
  store ptr %35, ptr %37, align 8
  %38 = load ptr, ptr %11, align 8
  %39 = getelementptr inbounds %struct.FILEMEM, ptr %38, i32 0, i32 0
  %40 = load ptr, ptr %39, align 8
  %41 = icmp eq ptr %40, null
  br i1 %41, label %42, label %50

42:                                               ; preds = %32
  %43 = load ptr, ptr %6, align 8
  %44 = load ptr, ptr %11, align 8
  call void @_cmsFree(ptr noundef %43, ptr noundef %44)
  %45 = load ptr, ptr %6, align 8
  %46 = load ptr, ptr %10, align 8
  call void @_cmsFree(ptr noundef %45, ptr noundef %46)
  %47 = load ptr, ptr %6, align 8
  %48 = load i32, ptr %8, align 4
  %49 = zext i32 %48 to i64
  call void (ptr, i32, ptr, ...) @cmsSignalError(ptr noundef %47, i32 noundef 5, ptr noundef @.str.1, i64 noundef %49)
  store ptr null, ptr %5, align 8
  br label %127

50:                                               ; preds = %32
  %51 = load ptr, ptr %11, align 8
  %52 = getelementptr inbounds %struct.FILEMEM, ptr %51, i32 0, i32 0
  %53 = load ptr, ptr %52, align 8
  %54 = load ptr, ptr %7, align 8
  %55 = load i32, ptr %8, align 4
  %56 = zext i32 %55 to i64
  call void @llvm.memmove.p0.p0.i64(ptr align 1 %53, ptr align 1 %54, i64 %56, i1 false)
  %57 = load ptr, ptr %11, align 8
  %58 = getelementptr inbounds %struct.FILEMEM, ptr %57, i32 0, i32 3
  store i32 1, ptr %58, align 8
  %59 = load i32, ptr %8, align 4
  %60 = load ptr, ptr %11, align 8
  %61 = getelementptr inbounds %struct.FILEMEM, ptr %60, i32 0, i32 1
  store i32 %59, ptr %61, align 8
  %62 = load ptr, ptr %11, align 8
  %63 = getelementptr inbounds %struct.FILEMEM, ptr %62, i32 0, i32 2
  store i32 0, ptr %63, align 4
  %64 = load i32, ptr %8, align 4
  %65 = load ptr, ptr %10, align 8
  %66 = getelementptr inbounds %struct._cms_io_handler, ptr %65, i32 0, i32 3
  store i32 %64, ptr %66, align 4
  br label %91

67:                                               ; preds = %17
  %68 = load ptr, ptr %6, align 8
  %69 = call ptr @_cmsMallocZero(ptr noundef %68, i32 noundef 24)
  store ptr %69, ptr %11, align 8
  %70 = load ptr, ptr %11, align 8
  %71 = icmp eq ptr %70, null
  br i1 %71, label %72, label %73

72:                                               ; preds = %67
  br label %114

73:                                               ; preds = %67
  %74 = load ptr, ptr %7, align 8
  %75 = load ptr, ptr %11, align 8
  %76 = getelementptr inbounds %struct.FILEMEM, ptr %75, i32 0, i32 0
  store ptr %74, ptr %76, align 8
  %77 = load ptr, ptr %11, align 8
  %78 = getelementptr inbounds %struct.FILEMEM, ptr %77, i32 0, i32 3
  store i32 0, ptr %78, align 8
  %79 = load i32, ptr %8, align 4
  %80 = load ptr, ptr %11, align 8
  %81 = getelementptr inbounds %struct.FILEMEM, ptr %80, i32 0, i32 1
  store i32 %79, ptr %81, align 8
  %82 = load ptr, ptr %11, align 8
  %83 = getelementptr inbounds %struct.FILEMEM, ptr %82, i32 0, i32 2
  store i32 0, ptr %83, align 4
  %84 = load ptr, ptr %10, align 8
  %85 = getelementptr inbounds %struct._cms_io_handler, ptr %84, i32 0, i32 3
  store i32 0, ptr %85, align 4
  br label %91

86:                                               ; preds = %17
  %87 = load ptr, ptr %6, align 8
  %88 = load ptr, ptr %9, align 8
  %89 = load i8, ptr %88, align 1
  %90 = sext i8 %89 to i32
  call void (ptr, i32, ptr, ...) @cmsSignalError(ptr noundef %87, i32 noundef 8, ptr noundef @.str.2, i32 noundef %90)
  store ptr null, ptr %5, align 8
  br label %127

91:                                               ; preds = %73, %50
  %92 = load ptr, ptr %6, align 8
  %93 = load ptr, ptr %10, align 8
  %94 = getelementptr inbounds %struct._cms_io_handler, ptr %93, i32 0, i32 1
  store ptr %92, ptr %94, align 8
  %95 = load ptr, ptr %11, align 8
  %96 = load ptr, ptr %10, align 8
  %97 = getelementptr inbounds %struct._cms_io_handler, ptr %96, i32 0, i32 0
  store ptr %95, ptr %97, align 8
  %98 = load ptr, ptr %10, align 8
  %99 = getelementptr inbounds %struct._cms_io_handler, ptr %98, i32 0, i32 2
  store i32 0, ptr %99, align 8
  %100 = load ptr, ptr %10, align 8
  %101 = getelementptr inbounds %struct._cms_io_handler, ptr %100, i32 0, i32 4
  %102 = getelementptr inbounds [256 x i8], ptr %101, i64 0, i64 0
  store i8 0, ptr %102, align 8
  %103 = load ptr, ptr %10, align 8
  %104 = getelementptr inbounds %struct._cms_io_handler, ptr %103, i32 0, i32 5
  store ptr @MemoryRead, ptr %104, align 8
  %105 = load ptr, ptr %10, align 8
  %106 = getelementptr inbounds %struct._cms_io_handler, ptr %105, i32 0, i32 6
  store ptr @MemorySeek, ptr %106, align 8
  %107 = load ptr, ptr %10, align 8
  %108 = getelementptr inbounds %struct._cms_io_handler, ptr %107, i32 0, i32 7
  store ptr @MemoryClose, ptr %108, align 8
  %109 = load ptr, ptr %10, align 8
  %110 = getelementptr inbounds %struct._cms_io_handler, ptr %109, i32 0, i32 8
  store ptr @MemoryTell, ptr %110, align 8
  %111 = load ptr, ptr %10, align 8
  %112 = getelementptr inbounds %struct._cms_io_handler, ptr %111, i32 0, i32 9
  store ptr @MemoryWrite, ptr %112, align 8
  %113 = load ptr, ptr %10, align 8
  store ptr %113, ptr %5, align 8
  br label %127

114:                                              ; preds = %72, %30, %26
  %115 = load ptr, ptr %11, align 8
  %116 = icmp ne ptr %115, null
  br i1 %116, label %117, label %120

117:                                              ; preds = %114
  %118 = load ptr, ptr %6, align 8
  %119 = load ptr, ptr %11, align 8
  call void @_cmsFree(ptr noundef %118, ptr noundef %119)
  br label %120

120:                                              ; preds = %117, %114
  %121 = load ptr, ptr %10, align 8
  %122 = icmp ne ptr %121, null
  br i1 %122, label %123, label %126

123:                                              ; preds = %120
  %124 = load ptr, ptr %6, align 8
  %125 = load ptr, ptr %10, align 8
  call void @_cmsFree(ptr noundef %124, ptr noundef %125)
  br label %126

126:                                              ; preds = %123, %120
  store ptr null, ptr %5, align 8
  br label %127

127:                                              ; preds = %126, %91, %86, %42, %16
  %128 = load ptr, ptr %5, align 8
  ret ptr %128
}