; Function Attrs: nounwind uwtable
define hidden ptr @cmsOpenIOhandlerFromMem(ptr noundef %0, ptr noundef %1, i32 noundef %2, ptr nocapture noundef readonly %3) local_unnamed_addr #0 {
  %5 = tail call ptr @_cmsMallocZero(ptr noundef %0, i32 noundef 320) #19
  %6 = icmp eq ptr %5, null
  br i1 %6, label %41, label %7

7:                                                ; preds = %4
  %8 = load i8, ptr %3, align 1
  switch i8 %8, label %25 [
    i8 114, label %9
    i8 119, label %21
  ]

9:                                                ; preds = %7
  %10 = tail call ptr @_cmsMallocZero(ptr noundef %0, i32 noundef 24) #19
  %11 = icmp eq ptr %10, null
  br i1 %11, label %.thread, label %12

12:                                               ; preds = %9
  %13 = icmp eq ptr %1, null
  br i1 %13, label %40, label %14

14:                                               ; preds = %12
  %15 = tail call ptr @_cmsMalloc(ptr noundef %0, i32 noundef %2) #19
  store ptr %15, ptr %10, align 8
  %16 = icmp eq ptr %15, null
  br i1 %16, label %17, label %19

17:                                               ; preds = %14
  tail call void @_cmsFree(ptr noundef %0, ptr noundef nonnull %10) #19
  tail call void @_cmsFree(ptr noundef %0, ptr noundef nonnull %5) #19
  %18 = zext i32 %2 to i64
  tail call void (ptr, i32, ptr, ...) @cmsSignalError(ptr noundef %0, i32 noundef 5, ptr noundef nonnull @.str.1, i64 noundef %18) #19
  br label %41

19:                                               ; preds = %14
  %20 = zext i32 %2 to i64
  tail call void @llvm.memmove.p0.p0.i64(ptr nonnull align 1 %15, ptr nonnull align 1 %1, i64 %20, i1 false)
  br label %27

21:                                               ; preds = %7
  %22 = tail call ptr @_cmsMallocZero(ptr noundef %0, i32 noundef 24) #19
  %23 = icmp eq ptr %22, null
  br i1 %23, label %.thread, label %24

24:                                               ; preds = %21
  store ptr %1, ptr %22, align 8
  br label %27

25:                                               ; preds = %7
  %26 = sext i8 %8 to i32
  tail call void (ptr, i32, ptr, ...) @cmsSignalError(ptr noundef %0, i32 noundef 8, ptr noundef nonnull @.str.2, i32 noundef %26) #19
  br label %41

27:                                               ; preds = %24, %19
  %.sink72 = phi ptr [ %22, %24 ], [ %10, %19 ]
  %.sink70 = phi i32 [ 0, %24 ], [ 1, %19 ]
  %.sink = phi i32 [ 0, %24 ], [ %2, %19 ]
  %28 = getelementptr inbounds i8, ptr %.sink72, i64 16
  store i32 %.sink70, ptr %28, align 8
  %29 = getelementptr inbounds i8, ptr %.sink72, i64 8
  store i32 %2, ptr %29, align 8
  %30 = getelementptr inbounds i8, ptr %.sink72, i64 12
  store i32 0, ptr %30, align 4
  %31 = getelementptr inbounds i8, ptr %5, i64 20
  store i32 %.sink, ptr %31, align 4
  %32 = getelementptr inbounds i8, ptr %5, i64 8
  store ptr %0, ptr %32, align 8
  store ptr %.sink72, ptr %5, align 8
  %33 = getelementptr inbounds i8, ptr %5, i64 16
  store i32 0, ptr %33, align 8
  %34 = getelementptr inbounds i8, ptr %5, i64 24
  store i8 0, ptr %34, align 8
  %35 = getelementptr inbounds i8, ptr %5, i64 280
  store ptr @MemoryRead, ptr %35, align 8
  %36 = getelementptr inbounds i8, ptr %5, i64 288
  store ptr @MemorySeek, ptr %36, align 8
  %37 = getelementptr inbounds i8, ptr %5, i64 296
  store ptr @MemoryClose, ptr %37, align 8
  %38 = getelementptr inbounds i8, ptr %5, i64 304
  store ptr @MemoryTell, ptr %38, align 8
  %39 = getelementptr inbounds i8, ptr %5, i64 312
  store ptr @MemoryWrite, ptr %39, align 8
  br label %41

40:                                               ; preds = %12
  tail call void (ptr, i32, ptr, ...) @cmsSignalError(ptr noundef %0, i32 noundef 5, ptr noundef nonnull @.str) #19
  tail call void @_cmsFree(ptr noundef %0, ptr noundef nonnull %10) #19
  br label %.thread

.thread:                                          ; preds = %9, %21, %40
  tail call void @_cmsFree(ptr noundef %0, ptr noundef nonnull %5) #19
  br label %41

41:                                               ; preds = %4, %.thread, %27, %25, %17
  %.055 = phi ptr [ null, %25 ], [ null, %.thread ], [ %5, %27 ], [ null, %17 ], [ null, %4 ]
  ret ptr %.055
}